target datalayout = "e-m:e-p270:32:32-p271:32:32-p272:64:64-i64:64-i128:128-f80:128-n8:16:32:64-S128"
target triple = "x86_64-pc-linux-gnu"

%"class.open3d::visualization::glsl::GeometryRenderer.base" = type <{ ptr, %"class.std::shared_ptr", i8 }>
%"class.std::shared_ptr" = type { %"class.std::__shared_ptr" }
%"class.std::__shared_ptr" = type { ptr, %"class.std::__shared_count" }
%"class.std::__shared_count" = type { ptr }
%"class.open3d::visualization::glsl::SimpleShader.base" = type <{ %"class.open3d::visualization::glsl::ShaderWrapper", i32, i32, i32, i32, i32 }>
%"class.open3d::visualization::glsl::ShaderWrapper" = type { ptr, i32, i32, i32, i32, i32, i32, i8, i8, %"class.std::__cxx11::basic_string" }
%"class.std::__cxx11::basic_string" = type { %"struct.std::__cxx11::basic_string<char>::_Alloc_hider", i64, %union.anon }
%"struct.std::__cxx11::basic_string<char>::_Alloc_hider" = type { ptr }
%union.anon = type { i64, [8 x i8] }
%"class.open3d::visualization::glsl::PhongShader" = type { %"class.open3d::visualization::glsl::ShaderWrapper", i32, i32, i32, i32, i32, i32, i32, i32, i32, i32, i32, i32, i32, i32, i32, [12 x i8], %"class.Eigen::Matrix", %"class.Eigen::Matrix", %"class.Eigen::Matrix.18", %"class.Eigen::Matrix.18", %"class.Eigen::Matrix.18", %"class.Eigen::Matrix.18" }
%"class.Eigen::Matrix" = type { %"class.Eigen::PlainObjectBase" }
%"class.Eigen::PlainObjectBase" = type { %"class.Eigen::DenseStorage" }
%"class.Eigen::DenseStorage" = type { %"struct.Eigen::internal::plain_array" }
%"struct.Eigen::internal::plain_array" = type { [16 x float] }
%"class.Eigen::Matrix.18" = type { %"class.Eigen::PlainObjectBase.19" }
%"class.Eigen::PlainObjectBase.19" = type { %"class.Eigen::DenseStorage.26" }
%"class.Eigen::DenseStorage.26" = type { %"struct.Eigen::internal::plain_array.27" }
%"struct.Eigen::internal::plain_array.27" = type { [4 x float] }
%"class.open3d::visualization::glsl::NormalShader.base" = type <{ %"class.open3d::visualization::glsl::ShaderWrapper", i32, i32, i32, i32, i32, i32, i32 }>
%"class.open3d::visualization::glsl::SimpleBlackShader.base" = type <{ %"class.open3d::visualization::glsl::ShaderWrapper", i32, i32, i32 }>
%"class.open3d::visualization::glsl::TriangleMeshRenderer" = type { %"class.open3d::visualization::glsl::GeometryRenderer.base", [7 x i8], %"class.open3d::visualization::glsl::SimpleShaderForTriangleMesh", %"class.open3d::visualization::glsl::TextureSimpleShaderForTriangleMesh", [8 x i8], %"class.open3d::visualization::glsl::PhongShaderForTriangleMesh", %"class.open3d::visualization::glsl::TexturePhongShaderForTriangleMesh", %"class.open3d::visualization::glsl::NormalShaderForTriangleMesh", %"class.open3d::visualization::glsl::SimpleBlackShaderForTriangleMeshWireFrame" }
%"class.open3d::visualization::glsl::SimpleShaderForTriangleMesh" = type { %"class.open3d::visualization::glsl::SimpleShader.base", [4 x i8] }
%"class.open3d::visualization::glsl::TextureSimpleShaderForTriangleMesh" = type { %"class.open3d::visualization::glsl::TextureSimpleShader" }
%"class.open3d::visualization::glsl::TextureSimpleShader" = type { %"class.open3d::visualization::glsl::ShaderWrapper", i32, i32, i32, i32, i32, %"class.std::vector.46", %"class.std::vector.46", %"class.std::vector.51", %"class.std::vector.51", %"class.std::vector.51" }
%"class.std::vector.46" = type { %"struct.std::_Vector_base.47" }
%"struct.std::_Vector_base.47" = type { %"struct.std::_Vector_base<int, std::allocator<int>>::_Vector_impl" }
%"struct.std::_Vector_base<int, std::allocator<int>>::_Vector_impl" = type { %"struct.std::_Vector_base<int, std::allocator<int>>::_Vector_impl_data" }
%"struct.std::_Vector_base<int, std::allocator<int>>::_Vector_impl_data" = type { ptr, ptr, ptr }
%"class.std::vector.51" = type { %"struct.std::_Vector_base.52" }
%"struct.std::_Vector_base.52" = type { %"struct.std::_Vector_base<unsigned int, std::allocator<unsigned int>>::_Vector_impl" }
%"struct.std::_Vector_base<unsigned int, std::allocator<unsigned int>>::_Vector_impl" = type { %"struct.std::_Vector_base<unsigned int, std::allocator<unsigned int>>::_Vector_impl_data" }
%"struct.std::_Vector_base<unsigned int, std::allocator<unsigned int>>::_Vector_impl_data" = type { ptr, ptr, ptr }
%"class.open3d::visualization::glsl::PhongShaderForTriangleMesh" = type { %"class.open3d::visualization::glsl::PhongShader" }
%"class.open3d::visualization::glsl::TexturePhongShaderForTriangleMesh" = type { %"class.open3d::visualization::glsl::TexturePhongShader" }
%"class.open3d::visualization::glsl::TexturePhongShader" = type { %"class.open3d::visualization::glsl::ShaderWrapper", i32, i32, i32, i32, i32, i32, i32, i32, i32, i32, i32, i32, i32, i32, %"class.std::vector.46", %"class.std::vector.46", %"class.std::vector.51", %"class.std::vector.51", %"class.std::vector.51", %"class.std::vector.51", %"class.Eigen::Matrix", %"class.Eigen::Matrix", %"class.Eigen::Matrix.18", %"class.Eigen::Matrix.18", %"class.Eigen::Matrix.18", %"class.Eigen::Matrix.18" }
%"class.open3d::visualization::glsl::NormalShaderForTriangleMesh" = type { %"class.open3d::visualization::glsl::NormalShader.base", [4 x i8] }
%"class.open3d::visualization::glsl::SimpleBlackShaderForTriangleMeshWireFrame" = type { %"class.open3d::visualization::glsl::SimpleBlackShader.base", [4 x i8] }

; Function Attrs: mustprogress ssp uwtable
define hidden noundef zeroext i1 @_ZN6open3d13visualization4glsl20TriangleMeshRenderer14UpdateGeometryEv(ptr noundef nonnull align 16 dereferenceable(1344) %0) unnamed_addr #1 align 2 {
  %2 = alloca ptr, align 8
  store ptr %0, ptr %2, align 8, !tbaa !56
  %3 = load ptr, ptr %2, align 8
  %4 = getelementptr inbounds nuw %"class.open3d::visualization::glsl::TriangleMeshRenderer", ptr %3, i32 0, i32 2
  call void @_ZN6open3d13visualization4glsl13ShaderWrapper18InvalidateGeometryEv(ptr noundef nonnull align 8 dereferenceable(72) %4)
  %5 = getelementptr inbounds nuw %"class.open3d::visualization::glsl::TriangleMeshRenderer", ptr %3, i32 0, i32 3
  call void @_ZN6open3d13visualization4glsl13ShaderWrapper18InvalidateGeometryEv(ptr noundef nonnull align 8 dereferenceable(72) %5)
  %6 = getelementptr inbounds nuw %"class.open3d::visualization::glsl::TriangleMeshRenderer", ptr %3, i32 0, i32 5
  call void @_ZN6open3d13visualization4glsl13ShaderWrapper18InvalidateGeometryEv(ptr noundef nonnull align 8 dereferenceable(72) %6)
  %7 = getelementptr inbounds nuw %"class.open3d::visualization::glsl::TriangleMeshRenderer", ptr %3, i32 0, i32 6
  call void @_ZN6open3d13visualization4glsl13ShaderWrapper18InvalidateGeometryEv(ptr noundef nonnull align 8 dereferenceable(72) %7)
  %8 = getelementptr inbounds nuw %"class.open3d::visualization::glsl::TriangleMeshRenderer", ptr %3, i32 0, i32 7
  call void @_ZN6open3d13visualization4glsl13ShaderWrapper18InvalidateGeometryEv(ptr noundef nonnull align 8 dereferenceable(72) %8)
  %9 = getelementptr inbounds nuw %"class.open3d::visualization::glsl::TriangleMeshRenderer", ptr %3, i32 0, i32 8
  call void @_ZN6open3d13visualization4glsl13ShaderWrapper18InvalidateGeometryEv(ptr noundef nonnull align 8 dereferenceable(72) %9)
  ret i1 true
}