; Function Attrs: mustprogress ssp uwtable
define hidden noundef zeroext i1 @_ZN6open3d13visualization4glsl20TriangleMeshRenderer14UpdateGeometryEv(ptr noundef nonnull align 16 dereferenceable(1344) %0) unnamed_addr #1 align 2 {
  %2 = getelementptr inbounds nuw i8, ptr %0, i64 32
  tail call void @_ZN6open3d13visualization4glsl13ShaderWrapper18InvalidateGeometryEv(ptr noundef nonnull align 8 dereferenceable(72) %2)
  %3 = getelementptr inbounds nuw i8, ptr %0, i64 128
  tail call void @_ZN6open3d13visualization4glsl13ShaderWrapper18InvalidateGeometryEv(ptr noundef nonnull align 8 dereferenceable(72) %3)
  %4 = getelementptr inbounds nuw i8, ptr %0, i64 352
  tail call void @_ZN6open3d13visualization4glsl13ShaderWrapper18InvalidateGeometryEv(ptr noundef nonnull align 8 dereferenceable(72) %4)
  %5 = getelementptr inbounds nuw i8, ptr %0, i64 688
  tail call void @_ZN6open3d13visualization4glsl13ShaderWrapper18InvalidateGeometryEv(ptr noundef nonnull align 8 dereferenceable(72) %5)
  %6 = getelementptr inbounds nuw i8, ptr %0, i64 1152
  tail call void @_ZN6open3d13visualization4glsl13ShaderWrapper18InvalidateGeometryEv(ptr noundef nonnull align 8 dereferenceable(72) %6)
  %7 = getelementptr inbounds nuw i8, ptr %0, i64 1256
  tail call void @_ZN6open3d13visualization4glsl13ShaderWrapper18InvalidateGeometryEv(ptr noundef nonnull align 8 dereferenceable(72) %7)
  ret i1 true
}